target datalayout = "e-m:e-p270:32:32-p271:32:32-p272:64:64-i64:64-i128:128-f80:128-n8:16:32:64-S128"
target triple = "x86_64-pc-linux-gnu"

; Function Attrs: mustprogress nounwind uwtable
define i32 @bmcg2_sat_solver_addclause(ptr noundef %0, ptr noundef %1, i32 noundef %2) #0 {
  %4 = alloca ptr, align 8
  %5 = alloca ptr, align 8
  %6 = alloca i32, align 4
  store ptr %0, ptr %4, align 8, !tbaa !30
  store ptr %1, ptr %5, align 8, !tbaa !10
  store i32 %2, ptr %6, align 4, !tbaa !12
  %7 = load ptr, ptr %4, align 8, !tbaa !30
  %8 = load ptr, ptr %5, align 8, !tbaa !10
  %9 = load i32, ptr %6, align 4, !tbaa !12
  %10 = call noundef i32 @_Z25glucose2_solver_addclausePN6Gluco210SimpSolverEPii(ptr noundef %7, ptr noundef %8, i32 noundef %9)
  ret i32 %10
}

; Function Attrs: inlinehint mustprogress nounwind uwtable
define internal noundef i32 @_ZL11Abc_Var2Litii(i32 noundef %0, i32 noundef %1) #4 {
  %3 = alloca i32, align 4
  %4 = alloca i32, align 4
  store i32 %0, ptr %3, align 4, !tbaa !12
  store i32 %1, ptr %4, align 4, !tbaa !12
  %5 = load i32, ptr %3, align 4, !tbaa !12
  %6 = load i32, ptr %3, align 4, !tbaa !12
  %7 = add nsw i32 %5, %6
  %8 = load i32, ptr %4, align 4, !tbaa !12
  %9 = add nsw i32 %7, %8
  ret i32 %9
}

; Function Attrs: mustprogress nounwind uwtable
define i32 @bmcg2_sat_solver_add_xor(ptr noundef %0, i32 noundef %1, i32 noundef %2, i32 noundef %3, i32 noundef %4) #0 {
  %6 = alloca ptr, align 8
  %7 = alloca i32, align 4
  %8 = alloca i32, align 4
  %9 = alloca i32, align 4
  %10 = alloca i32, align 4
  %11 = alloca [3 x i32], align 4
  %12 = alloca i32, align 4
  store ptr %0, ptr %6, align 8, !tbaa !30
  store i32 %1, ptr %7, align 4, !tbaa !12
  store i32 %2, ptr %8, align 4, !tbaa !12
  store i32 %3, ptr %9, align 4, !tbaa !12
  store i32 %4, ptr %10, align 4, !tbaa !12
  call void @llvm.lifetime.start.p0(i64 12, ptr %11) #15
  call void @llvm.lifetime.start.p0(i64 4, ptr %12) #15
  %13 = load i32, ptr %7, align 4, !tbaa !12
  %14 = load i32, ptr %10, align 4, !tbaa !12
  %15 = icmp ne i32 %14, 0
  %16 = xor i1 %15, true
  %17 = zext i1 %16 to i32
  %18 = call noundef i32 @_ZL11Abc_Var2Litii(i32 noundef %13, i32 noundef %17)
  %19 = getelementptr inbounds [3 x i32], ptr %11, i64 0, i64 0
  store i32 %18, ptr %19, align 4, !tbaa !12
  %20 = load i32, ptr %8, align 4, !tbaa !12
  %21 = call noundef i32 @_ZL11Abc_Var2Litii(i32 noundef %20, i32 noundef 1)
  %22 = getelementptr inbounds [3 x i32], ptr %11, i64 0, i64 1
  store i32 %21, ptr %22, align 4, !tbaa !12
  %23 = load i32, ptr %9, align 4, !tbaa !12
  %24 = call noundef i32 @_ZL11Abc_Var2Litii(i32 noundef %23, i32 noundef 1)
  %25 = getelementptr inbounds [3 x i32], ptr %11, i64 0, i64 2
  store i32 %24, ptr %25, align 4, !tbaa !12
  %26 = load ptr, ptr %6, align 8, !tbaa !30
  %27 = getelementptr inbounds [3 x i32], ptr %11, i64 0, i64 0
  %28 = call i32 @bmcg2_sat_solver_addclause(ptr noundef %26, ptr noundef %27, i32 noundef 3)
  store i32 %28, ptr %12, align 4, !tbaa !12
  %29 = load i32, ptr %7, align 4, !tbaa !12
  %30 = load i32, ptr %10, align 4, !tbaa !12
  %31 = icmp ne i32 %30, 0
  %32 = xor i1 %31, true
  %33 = zext i1 %32 to i32
  %34 = call noundef i32 @_ZL11Abc_Var2Litii(i32 noundef %29, i32 noundef %33)
  %35 = getelementptr inbounds [3 x i32], ptr %11, i64 0, i64 0
  store i32 %34, ptr %35, align 4, !tbaa !12
  %36 = load i32, ptr %8, align 4, !tbaa !12
  %37 = call noundef i32 @_ZL11Abc_Var2Litii(i32 noundef %36, i32 noundef 0)
  %38 = getelementptr inbounds [3 x i32], ptr %11, i64 0, i64 1
  store i32 %37, ptr %38, align 4, !tbaa !12
  %39 = load i32, ptr %9, align 4, !tbaa !12
  %40 = call noundef i32 @_ZL11Abc_Var2Litii(i32 noundef %39, i32 noundef 0)
  %41 = getelementptr inbounds [3 x i32], ptr %11, i64 0, i64 2
  store i32 %40, ptr %41, align 4, !tbaa !12
  %42 = load ptr, ptr %6, align 8, !tbaa !30
  %43 = getelementptr inbounds [3 x i32], ptr %11, i64 0, i64 0
  %44 = call i32 @bmcg2_sat_solver_addclause(ptr noundef %42, ptr noundef %43, i32 noundef 3)
  store i32 %44, ptr %12, align 4, !tbaa !12
  %45 = load i32, ptr %7, align 4, !tbaa !12
  %46 = load i32, ptr %10, align 4, !tbaa !12
  %47 = call noundef i32 @_ZL11Abc_Var2Litii(i32 noundef %45, i32 noundef %46)
  %48 = getelementptr inbounds [3 x i32], ptr %11, i64 0, i64 0
  store i32 %47, ptr %48, align 4, !tbaa !12
  %49 = load i32, ptr %8, align 4, !tbaa !12
  %50 = call noundef i32 @_ZL11Abc_Var2Litii(i32 noundef %49, i32 noundef 1)
  %51 = getelementptr inbounds [3 x i32], ptr %11, i64 0, i64 1
  store i32 %50, ptr %51, align 4, !tbaa !12
  %52 = load i32, ptr %9, align 4, !tbaa !12
  %53 = call noundef i32 @_ZL11Abc_Var2Litii(i32 noundef %52, i32 noundef 0)
  %54 = getelementptr inbounds [3 x i32], ptr %11, i64 0, i64 2
  store i32 %53, ptr %54, align 4, !tbaa !12
  %55 = load ptr, ptr %6, align 8, !tbaa !30
  %56 = getelementptr inbounds [3 x i32], ptr %11, i64 0, i64 0
  %57 = call i32 @bmcg2_sat_solver_addclause(ptr noundef %55, ptr noundef %56, i32 noundef 3)
  store i32 %57, ptr %12, align 4, !tbaa !12
  %58 = load i32, ptr %7, align 4, !tbaa !12
  %59 = load i32, ptr %10, align 4, !tbaa !12
  %60 = call noundef i32 @_ZL11Abc_Var2Litii(i32 noundef %58, i32 noundef %59)
  %61 = getelementptr inbounds [3 x i32], ptr %11, i64 0, i64 0
  store i32 %60, ptr %61, align 4, !tbaa !12
  %62 = load i32, ptr %8, align 4, !tbaa !12
  %63 = call noundef i32 @_ZL11Abc_Var2Litii(i32 noundef %62, i32 noundef 0)
  %64 = getelementptr inbounds [3 x i32], ptr %11, i64 0, i64 1
  store i32 %63, ptr %64, align 4, !tbaa !12
  %65 = load i32, ptr %9, align 4, !tbaa !12
  %66 = call noundef i32 @_ZL11Abc_Var2Litii(i32 noundef %65, i32 noundef 1)
  %67 = getelementptr inbounds [3 x i32], ptr %11, i64 0, i64 2
  store i32 %66, ptr %67, align 4, !tbaa !12
  %68 = load ptr, ptr %6, align 8, !tbaa !30
  %69 = getelementptr inbounds [3 x i32], ptr %11, i64 0, i64 0
  %70 = call i32 @bmcg2_sat_solver_addclause(ptr noundef %68, ptr noundef %69, i32 noundef 3)
  store i32 %70, ptr %12, align 4, !tbaa !12
  call void @llvm.lifetime.end.p0(i64 4, ptr %12) #15
  call void @llvm.lifetime.end.p0(i64 12, ptr %11) #15
  ret i32 4
}