; Function Attrs: mustprogress nounwind uwtable
define noundef i32 @bmcg2_sat_solver_add_xor(ptr noundef %0, i32 noundef %1, i32 noundef %2, i32 noundef %3, i32 noundef %4) local_unnamed_addr #0 {
  %6 = alloca [3 x i32], align 4
  call void @llvm.lifetime.start.p0(i64 12, ptr nonnull %6) #30
  %.not = icmp eq i32 %4, 0
  %7 = zext i1 %.not to i32
  %8 = shl nsw i32 %1, 1
  %9 = or disjoint i32 %8, %7
  store i32 %9, ptr %6, align 4, !tbaa !6
  %10 = shl nsw i32 %2, 1
  %11 = or disjoint i32 %10, 1
  %12 = getelementptr inbounds nuw i8, ptr %6, i64 4
  store i32 %11, ptr %12, align 4, !tbaa !6
  %13 = shl nsw i32 %3, 1
  %14 = or disjoint i32 %13, 1
  %15 = getelementptr inbounds nuw i8, ptr %6, i64 8
  store i32 %14, ptr %15, align 4, !tbaa !6
  %16 = call noundef range(i32 0, 2) i32 @_Z25glucose2_solver_addclausePN6Gluco210SimpSolverEPii(ptr noundef %0, ptr noundef nonnull readonly %6, i32 noundef 3)
  store i32 %9, ptr %6, align 4, !tbaa !6
  store i32 %10, ptr %12, align 4, !tbaa !6
  store i32 %13, ptr %15, align 4, !tbaa !6
  %17 = call noundef range(i32 0, 2) i32 @_Z25glucose2_solver_addclausePN6Gluco210SimpSolverEPii(ptr noundef %0, ptr noundef nonnull readonly %6, i32 noundef 3)
  %18 = add nsw i32 %4, %8
  store i32 %18, ptr %6, align 4, !tbaa !6
  store i32 %11, ptr %12, align 4, !tbaa !6
  store i32 %13, ptr %15, align 4, !tbaa !6
  %19 = call noundef range(i32 0, 2) i32 @_Z25glucose2_solver_addclausePN6Gluco210SimpSolverEPii(ptr noundef %0, ptr noundef nonnull readonly %6, i32 noundef 3)
  store i32 %18, ptr %6, align 4, !tbaa !6
  store i32 %10, ptr %12, align 4, !tbaa !6
  store i32 %14, ptr %15, align 4, !tbaa !6
  %20 = call noundef range(i32 0, 2) i32 @_Z25glucose2_solver_addclausePN6Gluco210SimpSolverEPii(ptr noundef %0, ptr noundef nonnull readonly %6, i32 noundef 3)
  call void @llvm.lifetime.end.p0(i64 12, ptr nonnull %6) #30
  ret i32 4
}